target datalayout = "e-m:e-p270:32:32-p271:32:32-p272:64:64-i64:64-i128:128-f80:128-n8:16:32:64-S128"
target triple = "x86_64-pc-linux-gnu"

%struct.dt_masks_form_gui_t = type { ptr, ptr, ptr, i32, float, float, float, float, float, float, float, float, i32, i32, i32, i32, i32, i32, i32, i32, i32, i32, i32, i32, i32, i32, i32, i32, i32, i32, i32, i32, i32, i32, float, float, i32, i32, i32, i32, i32, i32, ptr, ptr, i32, i32, i64 }

@.str.8 = private unnamed_addr constant [123 x i8] c"<b>curvature</b>: scroll, <b>compression</b>: shift+scroll\0A<b>rotation</b>: click+drag, <b>opacity</b>: ctrl+scroll (%d%%)\00", align 1
@.str.9 = private unnamed_addr constant [94 x i8] c"<b>curvature</b>: scroll, <b>compression</b>: shift+scroll\0A<b>opacity</b>: ctrl+scroll (%d%%)\00", align 1
@.str.10 = private unnamed_addr constant [20 x i8] c"<b>rotate</b>: drag\00", align 1

; Function Attrs: nounwind uwtable
define internal void @_gradient_set_hint_message(ptr noundef %0, ptr noundef %1, i32 noundef %2, ptr noalias noundef %3, i64 noundef %4) #0 {
  %6 = alloca ptr, align 8
  %7 = alloca ptr, align 8
  %8 = alloca i32, align 4
  %9 = alloca ptr, align 8
  %10 = alloca i64, align 8
  store ptr %0, ptr %6, align 8, !tbaa !17
  store ptr %1, ptr %7, align 8, !tbaa !10
  store i32 %2, ptr %8, align 4, !tbaa !6
  store ptr %3, ptr %9, align 8, !tbaa !19
  store i64 %4, ptr %10, align 8, !tbaa !15
  %11 = load ptr, ptr %6, align 8, !tbaa !17
  %12 = getelementptr inbounds nuw %struct.dt_masks_form_gui_t, ptr %11, i32 0, i32 39
  %13 = load i32, ptr %12, align 8, !tbaa !21
  %14 = icmp ne i32 %13, 0
  br i1 %14, label %15, label %21

15:                                               ; preds = %5
  %16 = load ptr, ptr %9, align 8, !tbaa !19
  %17 = load i64, ptr %10, align 8, !tbaa !15
  %18 = call ptr @dcgettext(ptr noundef null, ptr noundef @.str.8, i32 noundef 5) #11
  %19 = load i32, ptr %8, align 4, !tbaa !6
  %20 = call i32 (ptr, i64, ptr, ...) @g_snprintf(ptr noundef %16, i64 noundef %17, ptr noundef %18, i32 noundef %19)
  br label %44

21:                                               ; preds = %5
  %22 = load ptr, ptr %6, align 8, !tbaa !17
  %23 = getelementptr inbounds nuw %struct.dt_masks_form_gui_t, ptr %22, i32 0, i32 12
  %24 = load i32, ptr %23, align 4, !tbaa !27
  %25 = icmp ne i32 %24, 0
  br i1 %25, label %26, label %32

26:                                               ; preds = %21
  %27 = load ptr, ptr %9, align 8, !tbaa !19
  %28 = load i64, ptr %10, align 8, !tbaa !15
  %29 = call ptr @dcgettext(ptr noundef null, ptr noundef @.str.9, i32 noundef 5) #11
  %30 = load i32, ptr %8, align 4, !tbaa !6
  %31 = call i32 (ptr, i64, ptr, ...) @g_snprintf(ptr noundef %27, i64 noundef %28, ptr noundef %29, i32 noundef %30)
  br label %43

32:                                               ; preds = %21
  %33 = load ptr, ptr %6, align 8, !tbaa !17
  %34 = getelementptr inbounds nuw %struct.dt_masks_form_gui_t, ptr %33, i32 0, i32 15
  %35 = load i32, ptr %34, align 8, !tbaa !28
  %36 = icmp ne i32 %35, 0
  br i1 %36, label %37, label %42

37:                                               ; preds = %32
  %38 = load ptr, ptr %9, align 8, !tbaa !19
  %39 = call ptr @dcgettext(ptr noundef null, ptr noundef @.str.10, i32 noundef 5) #11
  %40 = load i64, ptr %10, align 8, !tbaa !15
  %41 = call i64 @g_strlcat(ptr noundef %38, ptr noundef %39, i64 noundef %40)
  br label %42

42:                                               ; preds = %37, %32
  br label %43

43:                                               ; preds = %42, %26
  br label %44

44:                                               ; preds = %43, %15
  ret void
}