; Function Attrs: nounwind uwtable
define internal void @_gradient_set_hint_message(ptr noundef readonly captures(none) %0, ptr readnone captures(none) %1, i32 noundef %2, ptr noalias noundef %3, i64 noundef %4) #0 {
  %6 = getelementptr inbounds nuw i8, ptr %0, i64 168
  %7 = load i32, ptr %6, align 8, !tbaa !6
  %.not = icmp eq i32 %7, 0
  br i1 %.not, label %11, label %8

8:                                                ; preds = %5
  %9 = tail call ptr @dcgettext(ptr noundef null, ptr noundef nonnull @.str.8, i32 noundef 5) #13
  %10 = tail call i32 (ptr, i64, ptr, ...) @g_snprintf(ptr noundef %3, i64 noundef %4, ptr noundef %9, i32 noundef %2) #13
  br label %23

11:                                               ; preds = %5
  %12 = getelementptr inbounds nuw i8, ptr %0, i64 60
  %13 = load i32, ptr %12, align 4, !tbaa !17
  %.not10 = icmp eq i32 %13, 0
  br i1 %.not10, label %17, label %14

14:                                               ; preds = %11
  %15 = tail call ptr @dcgettext(ptr noundef null, ptr noundef nonnull @.str.9, i32 noundef 5) #13
  %16 = tail call i32 (ptr, i64, ptr, ...) @g_snprintf(ptr noundef %3, i64 noundef %4, ptr noundef %15, i32 noundef %2) #13
  br label %23

17:                                               ; preds = %11
  %18 = getelementptr inbounds nuw i8, ptr %0, i64 72
  %19 = load i32, ptr %18, align 8, !tbaa !18
  %.not11 = icmp eq i32 %19, 0
  br i1 %.not11, label %23, label %20

20:                                               ; preds = %17
  %21 = tail call ptr @dcgettext(ptr noundef null, ptr noundef nonnull @.str.10, i32 noundef 5) #13
  %22 = tail call i64 @g_strlcat(ptr noundef %3, ptr noundef %21, i64 noundef %4) #13
  br label %23

23:                                               ; preds = %14, %20, %17, %8
  ret void
}